target datalayout = "e-m:e-p270:32:32-p271:32:32-p272:64:64-i64:64-i128:128-f80:128-n8:16:32:64-S128"
target triple = "x86_64-pc-linux-gnu"

%struct.H5G_loc_fnd_t = type { ptr }

@H5G_init_g = external global i8, align 1
@H5_libterm_g = external global i8, align 1
@.str = private unnamed_addr constant [100 x i8] c"generated/home/dtcxzyw/WorkSpace/Projects/compilers/llvm-opt-benchmark/bench/hdf5/hdf5/src/H5Gloc.c\00", align 1
@H5E_SYM_g = external global i64, align 8
@H5E_NOTFOUND_g = external global i64, align 8
@__func__.H5G__loc_find_cb = private unnamed_addr constant [17 x i8] c"H5G__loc_find_cb\00", align 1
@.str.33 = private unnamed_addr constant [26 x i8] c"object '%s' doesn't exist\00", align 1

; Function Attrs: nounwind uwtable
define internal i32 @H5G__loc_find_cb(ptr noundef %0, ptr noundef %1, ptr noundef %2, ptr noundef %3, ptr noundef %4, ptr noundef %5) #0 {
  %7 = alloca ptr, align 8
  %8 = alloca ptr, align 8
  %9 = alloca ptr, align 8
  %10 = alloca ptr, align 8
  %11 = alloca ptr, align 8
  %12 = alloca ptr, align 8
  %13 = alloca ptr, align 8
  %14 = alloca i32, align 4
  %15 = alloca i8, align 1
  store ptr %0, ptr %7, align 8, !tbaa !9
  store ptr %1, ptr %8, align 8, !tbaa !32
  store ptr %2, ptr %9, align 8, !tbaa !37
  store ptr %3, ptr %10, align 8, !tbaa !9
  store ptr %4, ptr %11, align 8, !tbaa !3
  store ptr %5, ptr %12, align 8, !tbaa !39
  call void @llvm.lifetime.start.p0(i64 8, ptr %13) #7
  %16 = load ptr, ptr %11, align 8, !tbaa !3
  store ptr %16, ptr %13, align 8, !tbaa !3
  call void @llvm.lifetime.start.p0(i64 4, ptr %14) #7
  store i32 0, ptr %14, align 4, !tbaa !7
  call void @llvm.lifetime.start.p0(i64 1, ptr %15) #7
  store i8 0, ptr %15, align 1, !tbaa !11
  %17 = load i8, ptr @H5G_init_g, align 1, !tbaa !11, !range !13, !noundef !14
  %18 = trunc i8 %17 to i1
  br i1 %18, label %23, label %19

19:                                               ; preds = %6
  %20 = load i8, ptr @H5_libterm_g, align 1, !tbaa !11, !range !13, !noundef !14
  %21 = trunc i8 %20 to i1
  %22 = xor i1 %21, true
  br label %23

23:                                               ; preds = %19, %6
  %24 = phi i1 [ true, %6 ], [ %22, %19 ]
  %25 = xor i1 %24, true
  %26 = xor i1 %25, true
  %27 = zext i1 %26 to i32
  %28 = sext i32 %27 to i64
  %29 = call i64 @llvm.expect.i64(i64 %28, i64 1)
  %30 = icmp ne i64 %29, 0
  br i1 %30, label %31, label %62

31:                                               ; preds = %23
  %32 = load ptr, ptr %10, align 8, !tbaa !9
  %33 = icmp eq ptr %32, null
  br i1 %33, label %34, label %54

34:                                               ; preds = %31
  br label %35

35:                                               ; preds = %34
  br label %36

36:                                               ; preds = %35
  br label %37

37:                                               ; preds = %36
  %38 = load i64, ptr @H5E_SYM_g, align 8, !tbaa !15
  %39 = load i64, ptr @H5E_NOTFOUND_g, align 8, !tbaa !15
  %40 = load ptr, ptr %8, align 8, !tbaa !32
  %41 = call i32 (ptr, ptr, i32, i64, i64, ptr, ...) @H5E_printf_stack(ptr noundef @.str, ptr noundef @__func__.H5G__loc_find_cb, i32 noundef 381, i64 noundef %38, i64 noundef %39, ptr noundef @.str.33, ptr noundef %40)
  br label %42

42:                                               ; preds = %37
  br label %43

43:                                               ; preds = %42
  store i8 1, ptr %15, align 1, !tbaa !11
  %44 = load i8, ptr %15, align 1, !tbaa !11, !range !13, !noundef !14
  %45 = trunc i8 %44 to i1
  %46 = zext i1 %45 to i8
  store i8 %46, ptr %15, align 1, !tbaa !11
  br label %47

47:                                               ; preds = %43
  br label %48

48:                                               ; preds = %47
  br label %49

49:                                               ; preds = %48
  store i32 -1, ptr %14, align 4, !tbaa !7
  br label %61

50:                                               ; No predecessors!
  br label %51

51:                                               ; preds = %50
  br label %52

52:                                               ; preds = %51
  br label %53

53:                                               ; preds = %52
  br label %54

54:                                               ; preds = %53, %31
  %55 = load ptr, ptr %13, align 8, !tbaa !3
  %56 = getelementptr inbounds nuw %struct.H5G_loc_fnd_t, ptr %55, i32 0, i32 0
  %57 = load ptr, ptr %56, align 8, !tbaa !35
  %58 = load ptr, ptr %10, align 8, !tbaa !9
  %59 = call i32 @H5G_loc_copy(ptr noundef %57, ptr noundef %58, i32 noundef 0)
  %60 = load ptr, ptr %12, align 8, !tbaa !39
  store i32 1, ptr %60, align 4, !tbaa !7
  br label %61

61:                                               ; preds = %54, %49
  br label %62

62:                                               ; preds = %61, %23
  %63 = load i32, ptr %14, align 4, !tbaa !7
  call void @llvm.lifetime.end.p0(i64 1, ptr %15) #7
  call void @llvm.lifetime.end.p0(i64 4, ptr %14) #7
  call void @llvm.lifetime.end.p0(i64 8, ptr %13) #7
  ret i32 %63
}