; Function Attrs: nounwind uwtable
define internal range(i32 -1, 1) i32 @H5G__loc_find_cb(ptr readnone captures(none) %0, ptr noundef %1, ptr readnone captures(none) %2, ptr noundef readonly captures(address_is_null) %3, ptr noundef readonly captures(none) %4, ptr noundef writeonly captures(none) %5) #0 {
  %7 = load i8, ptr @H5G_init_g, align 1, !tbaa !3, !range !7, !noundef !8
  %8 = trunc nuw i8 %7 to i1
  %9 = load i8, ptr @H5_libterm_g, align 1, !range !7
  %10 = trunc nuw i8 %9 to i1
  %11 = xor i1 %10, true
  %12 = select i1 %8, i1 true, i1 %11
  br i1 %12, label %13, label %22, !prof !9

13:                                               ; preds = %6
  %14 = icmp eq ptr %3, null
  br i1 %14, label %15, label %19

15:                                               ; preds = %13
  %16 = load i64, ptr @H5E_SYM_g, align 8, !tbaa !10
  %17 = load i64, ptr @H5E_NOTFOUND_g, align 8, !tbaa !10
  %18 = tail call i32 (ptr, ptr, i32, i64, i64, ptr, ...) @H5E_printf_stack(ptr noundef nonnull @.str, ptr noundef nonnull @__func__.H5G__loc_find_cb, i32 noundef 381, i64 noundef %16, i64 noundef %17, ptr noundef nonnull @.str.33, ptr noundef %1) #9
  br label %22

19:                                               ; preds = %13
  %20 = load ptr, ptr %4, align 8, !tbaa !19
  %21 = tail call i32 @H5G_loc_copy(ptr noundef %20, ptr noundef nonnull %3, i32 noundef 0)
  store i32 1, ptr %5, align 4, !tbaa !22
  br label %22

22:                                               ; preds = %15, %19, %6
  %.0 = phi i32 [ -1, %15 ], [ 0, %19 ], [ 0, %6 ]
  ret i32 %.0
}